target datalayout = "e-m:e-p270:32:32-p271:32:32-p272:64:64-i64:64-i128:128-f80:128-n8:16:32:64-S128"
target triple = "x86_64-unknown-linux-gnu"

%"class.sat::literal" = type { i32 }
%"class.sat::solver" = type { %"class.sat::solver_core", i8, [7 x i8], %"struct.sat::config", %"struct.sat::stats", %class.scoped_ptr, %class.scoped_ptr.0, ptr, %"class.sat::drat", [2 x %"class.sat::clause_allocator"], i8, %class.random_gen, %"class.sat::cleaner", %class.svector.11, %"class.sat::model_converter", i8, %"class.sat::simplifier", %"class.sat::scc", %"class.sat::asymm_branch", %"class.sat::probing", i8, [7 x i8], %"class.sat::mus", %"class.sat::binspr", i8, i8, [6 x i8], %"class.sat::justification", %"class.sat::literal", %class.ptr_vector.20, %class.ptr_vector.20, i32, %class.svector.4, %class.svector.4, %class.svector.4, %class.svector.4, %class.vector.40, %class.svector.11, %class.svector.41, %class.svector.14, %class.svector.14, %class.svector.14, %class.svector.14, %class.svector.14, %class.svector.4, %class.svector.4, i32, %class.svector.26, %class.svector.4, i32, %class.svector.43, %class.svector.43, %class.svector.43, %class.svector.43, %class.svector.43, i32, double, %class.svector.14, %class.svector.14, %class.svector.14, %class.svector.24, i32, i32, i32, i32, i32, i32, %"struct.sat::backoff", i32, i32, %"struct.sat::backoff", %"struct.sat::backoff", %class.var_queue, i32, i32, i32, %class.ema, %class.ema, %class.ema, %class.ema, %class.ema, %class.svector.26, %class.svector.28, %"class.std::__cxx11::basic_string", i8, %class.visit_helper, %class.svector.45, %class.scoped_limit_trail, %class.stopwatch, %class.params_ref, %"struct.sat::no_drat_params", %class.scoped_ptr.38, %class.svector.26, %"class.sat::literal_set", %"class.sat::literal_set", %class.svector.26, i32, i32, i32, i32, i8, ptr, ptr, %class.statistics, i32, i32, i32, i32, i8, i32, i32, i32, i32, i32, i32, i32, double, i32, double, i8, i8, %class.svector.26, i8, %class.svector.43, i32, i32, i32, %class.svector.26, %class.svector.26, %class.svector.24, %class.svector.4, %class.approx_set_tpl, %class.svector.26, %class.svector.26, %class.vector.10, %class.svector.26, %class.svector.36, %class.u_map, %class.svector.26 }
%"class.sat::solver_core" = type { ptr, ptr }
%"struct.sat::config" = type <{ i64, i32, i32, i32, i8, [3 x i8], i32, i32, double, i32, i8, [3 x i8], i32, i8, [3 x i8], i32, [4 x i8], double, double, i32, i32, double, double, i32, [4 x i8], %class.symbol, double, i32, i32, i8, [3 x i8], i32, i32, i8, [3 x i8], i32, i8, [3 x i8], i32, i8, [3 x i8], i32, i8, i8, i8, i8, i32, i8, i8, i8, i8, i8, i8, i8, i8, i32, i8, i8, i8, i8, i32, double, i32, [4 x i8], double, double, double, double, i32, i8, i8, [2 x i8], double, i8, i8, [2 x i8], i32, double, i32, i32, i32, i32, i32, i32, i32, i32, i8, i8, i8, i8, i32, i32, i8, i8, i8, i8, i8, i8, i8, [5 x i8], %class.symbol, i8, i8, i8, i8, i8, i8, [2 x i8], i32, i32, i32, i8, [3 x i8], double, double, double, double, double, i8, [7 x i8] }>
%class.symbol = type { ptr }
%"struct.sat::stats" = type { i32, i32, i32, i32, i32, i32, i32, i32, i32, i32, i32, i32, i32, i32, i32, i32, i32, i32, i32, i32, i32 }
%class.scoped_ptr = type { ptr }
%class.scoped_ptr.0 = type { ptr }
%"class.sat::drat" = type { ptr, %class.svector, ptr, %"class.sat::clause_allocator", ptr, ptr, %class.svector.6, %class.svector.8, %class.vector.10, %class.svector.11, i8, i8, i8, i8, i8, %"struct.sat::drat::stats" }
%class.svector = type { %class.vector }
%class.vector = type { ptr }
%"class.sat::clause_allocator" = type { %class.sat_allocator, %class.id_gen }
%class.sat_allocator = type { ptr, i64, %class.ptr_vector, ptr, [65 x %class.ptr_vector.2] }
%class.ptr_vector = type { %class.vector.1 }
%class.vector.1 = type { ptr }
%class.ptr_vector.2 = type { %class.vector.3 }
%class.vector.3 = type { ptr }
%class.id_gen = type { i32, %class.svector.4 }
%class.svector.6 = type { %class.vector.7 }
%class.vector.7 = type { ptr }
%class.svector.8 = type { %class.vector.9 }
%class.vector.9 = type { ptr }
%"struct.sat::drat::stats" = type { i32, i32, i32, i32 }
%class.random_gen = type { i32 }
%"class.sat::cleaner" = type { ptr, i32, i32, i32, i32 }
%"class.sat::model_converter" = type { %class.vector.13, i32, %class.svector.14, ptr, %class.svector.16 }
%class.vector.13 = type { ptr }
%class.svector.16 = type { %class.vector.17 }
%class.vector.17 = type { ptr }
%"class.sat::simplifier" = type { ptr, i32, %"class.sat::use_list", %"class.sat::ext_use_list", %"class.sat::clause_set", %class.svector.22, i32, %class.tracked_uint_set, i8, %"class.sat::tmp_clause", %class.svector.24, i32, i32, i8, i8, i8, i8, i32, i8, i8, i32, i8, i32, i8, i8, i32, i32, i32, i32, i32, i32, i32, i32, i32, i32, i8, i32, i8, i8, i32, i32, i32, i32, i32, i32, i32, i32, i32, i32, i32, i8, i32, %class.ptr_vector.20, %class.svector.26, %class.svector.28, %class.svector.28, %class.svector.26 }
%"class.sat::use_list" = type { %class.vector.18 }
%class.vector.18 = type { ptr }
%"class.sat::ext_use_list" = type { %class.vector.19 }
%class.vector.19 = type { ptr }
%"class.sat::clause_set" = type { %class.svector.4, %class.ptr_vector.20 }
%class.svector.22 = type { %class.vector.23 }
%class.vector.23 = type { ptr }
%class.tracked_uint_set = type { %class.svector.24, %class.svector.4 }
%"class.sat::tmp_clause" = type { ptr }
%"class.sat::scc" = type { ptr, i8, i8, i32, i32, %"class.sat::big" }
%"class.sat::big" = type { ptr, i32, %class.vector.30, %class.svector.14, %class.svector.31, %class.svector.31, %class.svector.26, %class.svector.26, i8, i8, %class.vector.30 }
%class.svector.31 = type { %class.vector.32 }
%class.vector.32 = type { ptr }
%class.vector.30 = type { ptr }
%"class.sat::asymm_branch" = type { ptr, %class.params_ref, i64, %class.random_gen, i32, i32, i8, i32, i32, i8, i8, i64, i32, i32, i32, %class.svector.26, %class.svector.26, %class.svector.33, %class.svector.33, %class.svector.26, %class.svector.26 }
%class.svector.33 = type { %class.vector.34 }
%class.vector.34 = type { ptr }
%"class.sat::probing" = type { ptr, i32, %"class.sat::literal_set", %class.svector.26, i32, i8, i32, i8, i8, i64, i32, %class.vector.35, %class.svector.36, %"class.sat::big" }
%class.vector.35 = type { ptr }
%"class.sat::mus" = type <{ ptr, %class.svector.26, %class.svector.26, i8, [7 x i8], %class.svector.11, i32, [4 x i8] }>
%"class.sat::binspr" = type <{ ptr, %class.scoped_ptr.38, i32, i32, %class.vector.39, i32, i32, %class.svector.14, %class.svector.14, %class.svector.26, %class.svector.26, i32, i32, i32, i32, i32, [4 x i32], [5 x i32], [5 x i32], [4 x i8] }>
%class.vector.39 = type { ptr }
%"class.sat::justification" = type <{ i32, [4 x i8], i64, i32, [4 x i8] }>
%class.ptr_vector.20 = type { %class.vector.21 }
%class.vector.21 = type { ptr }
%class.vector.40 = type { ptr }
%class.svector.11 = type { %class.vector.12 }
%class.vector.12 = type { ptr }
%class.svector.41 = type { %class.vector.42 }
%class.vector.42 = type { ptr }
%class.svector.14 = type { %class.vector.15 }
%class.vector.15 = type { ptr }
%"struct.sat::backoff" = type { i32, i32, i32, i32, i32 }
%class.var_queue = type { %class.heap }
%class.heap = type { %"struct.var_queue<svector<unsigned int>>::lt", %class.svector.31, %class.svector.31 }
%"struct.var_queue<svector<unsigned int>>::lt" = type { ptr }
%class.ema = type { double, double, double, i32, i32 }
%class.svector.28 = type { %class.vector.29 }
%class.vector.29 = type { ptr }
%"class.std::__cxx11::basic_string" = type { %"struct.std::__cxx11::basic_string<char>::_Alloc_hider", i64, %union.anon }
%"struct.std::__cxx11::basic_string<char>::_Alloc_hider" = type { ptr }
%union.anon = type { i64, [8 x i8] }
%class.visit_helper = type { %class.svector.4, i32, i32 }
%class.svector.45 = type { %class.vector.46 }
%class.vector.46 = type { ptr }
%class.scoped_limit_trail = type { %class.svector.4, i32, i32 }
%class.stopwatch = type <{ %"class.std::chrono::time_point", %"class.std::chrono::duration", i8, [7 x i8] }>
%"class.std::chrono::time_point" = type { %"class.std::chrono::duration" }
%"class.std::chrono::duration" = type { i64 }
%class.params_ref = type { ptr }
%"struct.sat::no_drat_params" = type { %class.params_ref }
%class.scoped_ptr.38 = type { ptr }
%"class.sat::literal_set" = type { %class.tracked_uint_set }
%class.statistics = type { %class.svector.47, %class.svector.49 }
%class.svector.47 = type { %class.vector.48 }
%class.vector.48 = type { ptr }
%class.svector.49 = type { %class.vector.50 }
%class.vector.50 = type { ptr }
%class.svector.43 = type { %class.vector.44 }
%class.vector.44 = type { ptr }
%class.svector.24 = type { %class.vector.25 }
%class.vector.25 = type { ptr }
%class.svector.4 = type { %class.vector.5 }
%class.vector.5 = type { ptr }
%class.approx_set_tpl = type { i32 }
%class.vector.10 = type { ptr }
%class.svector.36 = type { %class.vector.37 }
%class.vector.37 = type { ptr }
%class.u_map = type { %class.map }
%class.map = type { %class.table2map }
%class.table2map = type { %class.core_hashtable }
%class.core_hashtable = type <{ ptr, i32, i32, i32, [4 x i8] }>
%class.svector.26 = type { %class.vector.27 }
%class.vector.27 = type { ptr }

@.str = private unnamed_addr constant [10 x i8] c"(sat.gc)\0A\00", align 1
@.str.2 = private unnamed_addr constant [102 x i8] c"generated/home/dtcxzyw/WorkSpace/Projects/compilers/llvm-opt-benchmark/bench/z3/z3/src/sat/sat_gc.cpp\00", align 1
@.str.3 = private unnamed_addr constant [29 x i8] c"UNEXPECTED CODE WAS REACHED.\00", align 1

; Function Attrs: mustprogress nounwind uwtable
define linkonce_odr hidden noundef ptr @_ZNK10scoped_ptrIN3sat9extensionEEptEv(ptr noundef nonnull align 8 dereferenceable(8) %this) #4 comdat align 2 {
entry:
  %this.addr = alloca ptr, align 8
  store ptr %this, ptr %this.addr, align 8
  %this1 = load ptr, ptr %this.addr, align 8
  %m_ptr = getelementptr inbounds %class.scoped_ptr, ptr %this1, i32 0, i32 0
  %0 = load ptr, ptr %m_ptr, align 8
  ret ptr %0
}

; Function Attrs: mustprogress nounwind uwtable
define linkonce_odr hidden noundef zeroext i1 @_ZNK10scoped_ptrIN3sat9extensionEEcvbEv(ptr noundef nonnull align 8 dereferenceable(8) %this) #4 comdat align 2 {
entry:
  %this.addr = alloca ptr, align 8
  store ptr %this, ptr %this.addr, align 8
  %this1 = load ptr, ptr %this.addr, align 8
  %m_ptr = getelementptr inbounds %class.scoped_ptr, ptr %this1, i32 0, i32 0
  %0 = load ptr, ptr %m_ptr, align 8
  %cmp = icmp ne ptr %0, null
  ret i1 %cmp
}

; Function Attrs: mustprogress nounwind uwtable
define linkonce_odr hidden noundef zeroext i1 @_ZNK3sat6solver11at_base_lvlEv(ptr noundef nonnull align 8 dereferenceable(4408) %this) #4 comdat align 2 {
entry:
  %this.addr = alloca ptr, align 8
  store ptr %this, ptr %this.addr, align 8
  %this1 = load ptr, ptr %this.addr, align 8
  %m_scope_lvl = getelementptr inbounds %"class.sat::solver", ptr %this1, i32 0, i32 74
  %0 = load i32, ptr %m_scope_lvl, align 4
  %cmp = icmp eq i32 %0, 0
  ret i1 %cmp
}

; Function Attrs: mustprogress nounwind uwtable
define linkonce_odr hidden noundef zeroext i1 @_ZNK6vectorIN3sat7literalELb0EjE5emptyEv(ptr noundef nonnull align 8 dereferenceable(8) %this) #4 comdat align 2 {
entry:
  %this.addr = alloca ptr, align 8
  store ptr %this, ptr %this.addr, align 8
  %this1 = load ptr, ptr %this.addr, align 8
  %m_data = getelementptr inbounds %class.vector.27, ptr %this1, i32 0, i32 0
  %0 = load ptr, ptr %m_data, align 8
  %cmp = icmp eq ptr %0, null
  br i1 %cmp, label %lor.end, label %lor.rhs

lor.rhs:                                          ; preds = %entry
  %m_data2 = getelementptr inbounds %class.vector.27, ptr %this1, i32 0, i32 0
  %1 = load ptr, ptr %m_data2, align 8
  %arrayidx = getelementptr inbounds i32, ptr %1, i64 -1
  %2 = load i32, ptr %arrayidx, align 4
  %cmp3 = icmp eq i32 %2, 0
  br label %lor.end

lor.end:                                          ; preds = %lor.rhs, %entry
  %3 = phi i1 [ true, %entry ], [ %cmp3, %lor.rhs ]
  ret i1 %3
}

; Function Attrs: mustprogress uwtable
define hidden noundef zeroext i1 @_ZNK3sat6solver9should_gcEv(ptr noundef nonnull align 8 dereferenceable(4408) %this) #5 align 2 {
entry:
  %this.addr = alloca ptr, align 8
  store ptr %this, ptr %this.addr, align 8
  %this1 = load ptr, ptr %this.addr, align 8
  %m_conflicts_since_gc = getelementptr inbounds %"class.sat::solver", ptr %this1, i32 0, i32 112
  %0 = load i32, ptr %m_conflicts_since_gc, align 8
  %m_gc_threshold = getelementptr inbounds %"class.sat::solver", ptr %this1, i32 0, i32 113
  %1 = load i32, ptr %m_gc_threshold, align 4
  %cmp = icmp ugt i32 %0, %1
  br i1 %cmp, label %land.rhs, label %land.end

land.rhs:                                         ; preds = %entry
  %m_config = getelementptr inbounds %"class.sat::solver", ptr %this1, i32 0, i32 3
  %m_gc_strategy = getelementptr inbounds %"struct.sat::config", ptr %m_config, i32 0, i32 81
  %2 = load i32, ptr %m_gc_strategy, align 4
  %cmp2 = icmp ne i32 %2, 0
  br i1 %cmp2, label %lor.end, label %lor.rhs

lor.rhs:                                          ; preds = %land.rhs
  %call = call noundef zeroext i1 @_ZNK3sat6solver11at_base_lvlEv(ptr noundef nonnull align 8 dereferenceable(4408) %this1)
  br label %lor.end

lor.end:                                          ; preds = %lor.rhs, %land.rhs
  %3 = phi i1 [ true, %land.rhs ], [ %call, %lor.rhs ]
  br label %land.end

land.end:                                         ; preds = %lor.end, %entry
  %4 = phi i1 [ false, %entry ], [ %3, %lor.end ]
  ret i1 %4
}

; Function Attrs: mustprogress uwtable
define hidden void @_ZN3sat6solver5do_gcEv(ptr noundef nonnull align 8 dereferenceable(4408) %this) #5 align 2 {
entry:
  %this.addr = alloca ptr, align 8
  %gc = alloca i32, align 4
  store ptr %this, ptr %this.addr, align 8
  %this1 = load ptr, ptr %this.addr, align 8
  %call = call noundef zeroext i1 @_ZNK3sat6solver9should_gcEv(ptr noundef nonnull align 8 dereferenceable(4408) %this1)
  br i1 %call, label %if.end, label %if.then

if.then:                                          ; preds = %entry
  br label %if.end31

if.end:                                           ; preds = %entry
  %m_stats = getelementptr inbounds %"class.sat::solver", ptr %this1, i32 0, i32 4
  %m_gc_clause = getelementptr inbounds %"struct.sat::stats", ptr %m_stats, i32 0, i32 10
  %0 = load i32, ptr %m_gc_clause, align 8
  store i32 %0, ptr %gc, align 4
  %m_conflicts_since_gc = getelementptr inbounds %"class.sat::solver", ptr %this1, i32 0, i32 112
  store i32 0, ptr %m_conflicts_since_gc, align 8
  %m_config = getelementptr inbounds %"class.sat::solver", ptr %this1, i32 0, i32 3
  %m_gc_increment = getelementptr inbounds %"struct.sat::config", ptr %m_config, i32 0, i32 83
  %1 = load i32, ptr %m_gc_increment, align 4
  %m_gc_threshold = getelementptr inbounds %"class.sat::solver", ptr %this1, i32 0, i32 113
  %2 = load i32, ptr %m_gc_threshold, align 4
  %add = add i32 %2, %1
  store i32 %add, ptr %m_gc_threshold, align 4
  %call2 = call noundef i32 @_Z19get_verbosity_levelv()
  %cmp = icmp uge i32 %call2, 10
  br i1 %cmp, label %if.then3, label %if.end11

if.then3:                                         ; preds = %if.end
  %call4 = call noundef zeroext i1 @_Z11is_threadedv()
  br i1 %call4, label %if.then5, label %if.else

if.then5:                                         ; preds = %if.then3
  call void @_Z12verbose_lockv()
  %call6 = call noundef nonnull align 8 dereferenceable(8) ptr @_Z14verbose_streamv()
  %call7 = call noundef nonnull align 8 dereferenceable(8) ptr @_ZStlsISt11char_traitsIcEERSt13basic_ostreamIcT_ES5_PKc(ptr noundef nonnull align 8 dereferenceable(8) %call6, ptr noundef @.str)
  call void @_Z14verbose_unlockv()
  br label %if.end10

if.else:                                          ; preds = %if.then3
  %call8 = call noundef nonnull align 8 dereferenceable(8) ptr @_Z14verbose_streamv()
  %call9 = call noundef nonnull align 8 dereferenceable(8) ptr @_ZStlsISt11char_traitsIcEERSt13basic_ostreamIcT_ES5_PKc(ptr noundef nonnull align 8 dereferenceable(8) %call8, ptr noundef @.str)
  br label %if.end10

if.end10:                                         ; preds = %if.else, %if.then5
  br label %if.end11

if.end11:                                         ; preds = %if.end10, %if.end
  %m_config12 = getelementptr inbounds %"class.sat::solver", ptr %this1, i32 0, i32 3
  %m_gc_strategy = getelementptr inbounds %"struct.sat::config", ptr %m_config12, i32 0, i32 81
  %3 = load i32, ptr %m_gc_strategy, align 4
  switch i32 %3, label %sw.default [
    i32 2, label %sw.bb
    i32 1, label %sw.bb13
    i32 3, label %sw.bb14
    i32 4, label %sw.bb15
    i32 0, label %sw.bb16
  ]

sw.bb:                                            ; preds = %if.end11
  call void @_ZN3sat6solver7gc_glueEv(ptr noundef nonnull align 8 dereferenceable(4408) %this1)
  br label %sw.epilog

sw.bb13:                                          ; preds = %if.end11
  call void @_ZN3sat6solver6gc_psmEv(ptr noundef nonnull align 8 dereferenceable(4408) %this1)
  br label %sw.epilog

sw.bb14:                                          ; preds = %if.end11
  call void @_ZN3sat6solver11gc_glue_psmEv(ptr noundef nonnull align 8 dereferenceable(4408) %this1)
  br label %sw.epilog

sw.bb15:                                          ; preds = %if.end11
  call void @_ZN3sat6solver11gc_psm_glueEv(ptr noundef nonnull align 8 dereferenceable(4408) %this1)
  br label %sw.epilog

sw.bb16:                                          ; preds = %if.end11
  %m_assumptions = getelementptr inbounds %"class.sat::solver", ptr %this1, i32 0, i32 92
  %call17 = call noundef zeroext i1 @_ZNK6vectorIN3sat7literalELb0EjE5emptyEv(ptr noundef nonnull align 8 dereferenceable(8) %m_assumptions)
  br i1 %call17, label %if.end19, label %if.then18

if.then18:                                        ; preds = %sw.bb16
  call void @_ZN3sat6solver11gc_glue_psmEv(ptr noundef nonnull align 8 dereferenceable(4408) %this1)
  br label %sw.epilog

if.end19:                                         ; preds = %sw.bb16
  %call20 = call noundef zeroext i1 @_ZNK3sat6solver11at_base_lvlEv(ptr noundef nonnull align 8 dereferenceable(4408) %this1)
  br i1 %call20, label %if.end22, label %if.then21

if.then21:                                        ; preds = %if.end19
  br label %if.end31

if.end22:                                         ; preds = %if.end19
  call void @_ZN3sat6solver10gc_dyn_psmEv(ptr noundef nonnull align 8 dereferenceable(4408) %this1)
  br label %sw.epilog

sw.default:                                       ; preds = %if.end11
  call void @_Z26notify_assertion_violationPKciS0_(ptr noundef @.str.2, i32 noundef 68, ptr noundef @.str.3)
  call void @exit(i32 noundef 114) #13
  unreachable

sw.epilog:                                        ; preds = %if.end22, %if.then18, %sw.bb15, %sw.bb14, %sw.bb13, %sw.bb
  %m_ext = getelementptr inbounds %"class.sat::solver", ptr %this1, i32 0, i32 5
  %call23 = call noundef zeroext i1 @_ZNK10scoped_ptrIN3sat9extensionEEcvbEv(ptr noundef nonnull align 8 dereferenceable(8) %m_ext)
  br i1 %call23, label %if.then24, label %if.end27

if.then24:                                        ; preds = %sw.epilog
  %m_ext25 = getelementptr inbounds %"class.sat::solver", ptr %this1, i32 0, i32 5
  %call26 = call noundef ptr @_ZNK10scoped_ptrIN3sat9extensionEEptEv(ptr noundef nonnull align 8 dereferenceable(8) %m_ext25)
  %vtable = load ptr, ptr %call26, align 8
  %vfn = getelementptr inbounds ptr, ptr %vtable, i64 34
  %4 = load ptr, ptr %vfn, align 8
  call void %4(ptr noundef nonnull align 8 dereferenceable(32) %call26)
  br label %if.end27

if.end27:                                         ; preds = %if.then24, %sw.epilog
  %5 = load i32, ptr %gc, align 4
  %cmp28 = icmp ugt i32 %5, 0
  br i1 %cmp28, label %land.lhs.true, label %if.end31

land.lhs.true:                                    ; preds = %if.end27
  %call29 = call noundef zeroext i1 @_ZN3sat6solver13should_defragEv(ptr noundef nonnull align 8 dereferenceable(4408) %this1)
  br i1 %call29, label %if.then30, label %if.end31

if.then30:                                        ; preds = %land.lhs.true
  call void @_ZN3sat6solver14defrag_clausesEv(ptr noundef nonnull align 8 dereferenceable(4408) %this1)
  br label %if.end31

if.end31:                                         ; preds = %if.then30, %land.lhs.true, %if.end27, %if.then21, %if.then
  ret void
}