; Function Attrs: mustprogress uwtable
define hidden void @_ZN3sat6solver5do_gcEv(ptr noundef nonnull align 8 dereferenceable(4408) %this) local_unnamed_addr #4 align 2 {
entry:
  %m_conflicts_since_gc.i = getelementptr inbounds i8, ptr %this, i64 4208
  %0 = load i32, ptr %m_conflicts_since_gc.i, align 8
  %m_gc_threshold.i = getelementptr inbounds i8, ptr %this, i64 4212
  %1 = load i32, ptr %m_gc_threshold.i, align 4
  %cmp.i = icmp ugt i32 %0, %1
  br i1 %cmp.i, label %land.rhs.i, label %if.end31

land.rhs.i:                                       ; preds = %entry
  %m_gc_strategy.i = getelementptr inbounds i8, ptr %this, i64 316
  %2 = load i32, ptr %m_gc_strategy.i, align 4
  %cmp2.not.i = icmp ne i32 %2, 0
  %m_scope_lvl.i.i = getelementptr inbounds i8, ptr %this, i64 3756
  %3 = load i32, ptr %m_scope_lvl.i.i, align 4
  %cmp.i.i = icmp eq i32 %3, 0
  %or.cond = select i1 %cmp2.not.i, i1 true, i1 %cmp.i.i
  br i1 %or.cond, label %if.end, label %if.end31

if.end:                                           ; preds = %land.rhs.i
  %m_gc_clause = getelementptr inbounds i8, ptr %this, i64 480
  %4 = load i32, ptr %m_gc_clause, align 8
  store i32 0, ptr %m_conflicts_since_gc.i, align 8
  %m_gc_increment = getelementptr inbounds i8, ptr %this, i64 324
  %5 = load i32, ptr %m_gc_increment, align 4
  %add = add i32 %5, %1
  store i32 %add, ptr %m_gc_threshold.i, align 4
  %call2 = tail call noundef i32 @_Z19get_verbosity_levelv()
  %cmp = icmp ugt i32 %call2, 9
  br i1 %cmp, label %if.then3, label %if.end11

if.then3:                                         ; preds = %if.end
  %call4 = tail call noundef zeroext i1 @_Z11is_threadedv()
  br i1 %call4, label %if.then5, label %if.else

if.then5:                                         ; preds = %if.then3
  tail call void @_Z12verbose_lockv()
  %call6 = tail call noundef nonnull align 8 dereferenceable(8) ptr @_Z14verbose_streamv()
  %call7 = tail call noundef nonnull align 8 dereferenceable(8) ptr @_ZStlsISt11char_traitsIcEERSt13basic_ostreamIcT_ES5_PKc(ptr noundef nonnull align 8 dereferenceable(8) %call6, ptr noundef nonnull @.str)
  tail call void @_Z14verbose_unlockv()
  br label %if.end11

if.else:                                          ; preds = %if.then3
  %call8 = tail call noundef nonnull align 8 dereferenceable(8) ptr @_Z14verbose_streamv()
  %call9 = tail call noundef nonnull align 8 dereferenceable(8) ptr @_ZStlsISt11char_traitsIcEERSt13basic_ostreamIcT_ES5_PKc(ptr noundef nonnull align 8 dereferenceable(8) %call8, ptr noundef nonnull @.str)
  br label %if.end11

if.end11:                                         ; preds = %if.then5, %if.else, %if.end
  %6 = load i32, ptr %m_gc_strategy.i, align 4
  switch i32 %6, label %sw.default [
    i32 2, label %sw.bb
    i32 1, label %sw.bb13
    i32 3, label %sw.bb14
    i32 4, label %sw.bb15
    i32 0, label %sw.bb16
  ]

sw.bb:                                            ; preds = %if.end11
  tail call void @_ZN3sat6solver7gc_glueEv(ptr noundef nonnull align 8 dereferenceable(4408) %this)
  br label %sw.epilog

sw.bb13:                                          ; preds = %if.end11
  tail call void @_ZN3sat6solver6gc_psmEv(ptr noundef nonnull align 8 dereferenceable(4408) %this)
  br label %sw.epilog

sw.bb14:                                          ; preds = %if.end11
  tail call void @_ZN3sat6solver11gc_glue_psmEv(ptr noundef nonnull align 8 dereferenceable(4408) %this)
  br label %sw.epilog

sw.bb15:                                          ; preds = %if.end11
  tail call void @_ZN3sat6solver11gc_psm_glueEv(ptr noundef nonnull align 8 dereferenceable(4408) %this)
  br label %sw.epilog

sw.bb16:                                          ; preds = %if.end11
  %m_assumptions = getelementptr inbounds i8, ptr %this, i64 4072
  %7 = load ptr, ptr %m_assumptions, align 8
  %cmp.i1 = icmp eq ptr %7, null
  br i1 %cmp.i1, label %if.end19, label %_ZNK6vectorIN3sat7literalELb0EjE5emptyEv.exit

_ZNK6vectorIN3sat7literalELb0EjE5emptyEv.exit:    ; preds = %sw.bb16
  %arrayidx.i = getelementptr inbounds i8, ptr %7, i64 -4
  %8 = load i32, ptr %arrayidx.i, align 4
  %cmp3.i = icmp eq i32 %8, 0
  br i1 %cmp3.i, label %if.end19, label %if.then18

if.then18:                                        ; preds = %_ZNK6vectorIN3sat7literalELb0EjE5emptyEv.exit
  tail call void @_ZN3sat6solver11gc_glue_psmEv(ptr noundef nonnull align 8 dereferenceable(4408) %this)
  br label %sw.epilog

if.end19:                                         ; preds = %sw.bb16, %_ZNK6vectorIN3sat7literalELb0EjE5emptyEv.exit
  %9 = load i32, ptr %m_scope_lvl.i.i, align 4
  %cmp.i3 = icmp eq i32 %9, 0
  br i1 %cmp.i3, label %if.end22, label %if.end31

if.end22:                                         ; preds = %if.end19
  tail call void @_ZN3sat6solver10gc_dyn_psmEv(ptr noundef nonnull align 8 dereferenceable(4408) %this)
  br label %sw.epilog

sw.default:                                       ; preds = %if.end11
  tail call void @_Z26notify_assertion_violationPKciS0_(ptr noundef nonnull @.str.2, i32 noundef 68, ptr noundef nonnull @.str.3)
  tail call void @exit(i32 noundef 114) #19
  unreachable

sw.epilog:                                        ; preds = %if.end22, %if.then18, %sw.bb15, %sw.bb14, %sw.bb13, %sw.bb
  %m_ext = getelementptr inbounds i8, ptr %this, i64 528
  %10 = load ptr, ptr %m_ext, align 8
  %cmp.i4.not = icmp eq ptr %10, null
  br i1 %cmp.i4.not, label %if.end27, label %if.then24

if.then24:                                        ; preds = %sw.epilog
  %vtable = load ptr, ptr %10, align 8
  %vfn = getelementptr inbounds i8, ptr %vtable, i64 272
  %11 = load ptr, ptr %vfn, align 8
  tail call void %11(ptr noundef nonnull align 8 dereferenceable(32) %10)
  br label %if.end27

if.end27:                                         ; preds = %if.then24, %sw.epilog
  %cmp28.not = icmp eq i32 %4, 0
  br i1 %cmp28.not, label %if.end31, label %land.lhs.true

land.lhs.true:                                    ; preds = %if.end27
  %call29 = tail call noundef zeroext i1 @_ZN3sat6solver13should_defragEv(ptr noundef nonnull align 8 dereferenceable(4408) %this)
  br i1 %call29, label %if.then30, label %if.end31

if.then30:                                        ; preds = %land.lhs.true
  tail call void @_ZN3sat6solver14defrag_clausesEv(ptr noundef nonnull align 8 dereferenceable(4408) %this)
  br label %if.end31

if.end31:                                         ; preds = %land.rhs.i, %entry, %if.end19, %if.then30, %land.lhs.true, %if.end27
  ret void
}